ARM GAS  /tmp/ccoOn0vo.s 			page 1


   1              		.cpu cortex-m4
   2              		.eabi_attribute 27, 1
   3              		.eabi_attribute 28, 1
   4              		.eabi_attribute 20, 1
   5              		.eabi_attribute 21, 1
   6              		.eabi_attribute 23, 3
   7              		.eabi_attribute 24, 1
   8              		.eabi_attribute 25, 1
   9              		.eabi_attribute 26, 1
  10              		.eabi_attribute 30, 1
  11              		.eabi_attribute 34, 1
  12              		.eabi_attribute 18, 4
  13              		.file	"usart.c"
  14              		.text
  15              	.Ltext0:
  16              		.cfi_sections	.debug_frame
  17              		.section	.text.MX_LPUART1_UART_Init,"ax",%progbits
  18              		.align	1
  19              		.global	MX_LPUART1_UART_Init
  20              		.arch armv7e-m
  21              		.syntax unified
  22              		.thumb
  23              		.thumb_func
  24              		.fpu fpv4-sp-d16
  26              	MX_LPUART1_UART_Init:
  27              	.LFB132:
  28              		.file 1 "Core/Src/usart.c"
   1:Core/Src/usart.c **** /* USER CODE BEGIN Header */
   2:Core/Src/usart.c **** /**
   3:Core/Src/usart.c ****   ******************************************************************************
   4:Core/Src/usart.c ****   * @file    usart.c
   5:Core/Src/usart.c ****   * @brief   This file provides code for the configuration
   6:Core/Src/usart.c ****   *          of the USART instances.
   7:Core/Src/usart.c ****   ******************************************************************************
   8:Core/Src/usart.c ****   * @attention
   9:Core/Src/usart.c ****   *
  10:Core/Src/usart.c ****   * Copyright (c) 2022 STMicroelectronics.
  11:Core/Src/usart.c ****   * All rights reserved.
  12:Core/Src/usart.c ****   *
  13:Core/Src/usart.c ****   * This software is licensed under terms that can be found in the LICENSE file
  14:Core/Src/usart.c ****   * in the root directory of this software component.
  15:Core/Src/usart.c ****   * If no LICENSE file comes with this software, it is provided AS-IS.
  16:Core/Src/usart.c ****   *
  17:Core/Src/usart.c ****   ******************************************************************************
  18:Core/Src/usart.c ****   */
  19:Core/Src/usart.c **** /* USER CODE END Header */
  20:Core/Src/usart.c **** /* Includes ------------------------------------------------------------------*/
  21:Core/Src/usart.c **** #include "usart.h"
  22:Core/Src/usart.c **** 
  23:Core/Src/usart.c **** /* USER CODE BEGIN 0 */
  24:Core/Src/usart.c **** 
  25:Core/Src/usart.c **** /* USER CODE END 0 */
  26:Core/Src/usart.c **** 
  27:Core/Src/usart.c **** UART_HandleTypeDef hlpuart1;
  28:Core/Src/usart.c **** 
  29:Core/Src/usart.c **** /* LPUART1 init function */
  30:Core/Src/usart.c **** 
ARM GAS  /tmp/ccoOn0vo.s 			page 2


  31:Core/Src/usart.c **** void MX_LPUART1_UART_Init(void)
  32:Core/Src/usart.c **** {
  29              		.loc 1 32 1 view -0
  30              		.cfi_startproc
  31              		@ args = 0, pretend = 0, frame = 0
  32              		@ frame_needed = 0, uses_anonymous_args = 0
  33 0000 08B5     		push	{r3, lr}
  34              	.LCFI0:
  35              		.cfi_def_cfa_offset 8
  36              		.cfi_offset 3, -8
  37              		.cfi_offset 14, -4
  33:Core/Src/usart.c **** 
  34:Core/Src/usart.c ****   /* USER CODE BEGIN LPUART1_Init 0 */
  35:Core/Src/usart.c **** 
  36:Core/Src/usart.c ****   /* USER CODE END LPUART1_Init 0 */
  37:Core/Src/usart.c **** 
  38:Core/Src/usart.c ****   /* USER CODE BEGIN LPUART1_Init 1 */
  39:Core/Src/usart.c **** 
  40:Core/Src/usart.c ****   /* USER CODE END LPUART1_Init 1 */
  41:Core/Src/usart.c ****   hlpuart1.Instance = LPUART1;
  38              		.loc 1 41 3 view .LVU1
  39              		.loc 1 41 21 is_stmt 0 view .LVU2
  40 0002 1748     		ldr	r0, .L11
  41 0004 174B     		ldr	r3, .L11+4
  42 0006 0360     		str	r3, [r0]
  42:Core/Src/usart.c ****   hlpuart1.Init.BaudRate = 115200;
  43              		.loc 1 42 3 is_stmt 1 view .LVU3
  44              		.loc 1 42 26 is_stmt 0 view .LVU4
  45 0008 4FF4E133 		mov	r3, #115200
  46 000c 4360     		str	r3, [r0, #4]
  43:Core/Src/usart.c ****   hlpuart1.Init.WordLength = UART_WORDLENGTH_8B;
  47              		.loc 1 43 3 is_stmt 1 view .LVU5
  48              		.loc 1 43 28 is_stmt 0 view .LVU6
  49 000e 0023     		movs	r3, #0
  50 0010 8360     		str	r3, [r0, #8]
  44:Core/Src/usart.c ****   hlpuart1.Init.StopBits = UART_STOPBITS_1;
  51              		.loc 1 44 3 is_stmt 1 view .LVU7
  52              		.loc 1 44 26 is_stmt 0 view .LVU8
  53 0012 C360     		str	r3, [r0, #12]
  45:Core/Src/usart.c ****   hlpuart1.Init.Parity = UART_PARITY_NONE;
  54              		.loc 1 45 3 is_stmt 1 view .LVU9
  55              		.loc 1 45 24 is_stmt 0 view .LVU10
  56 0014 0361     		str	r3, [r0, #16]
  46:Core/Src/usart.c ****   hlpuart1.Init.Mode = UART_MODE_TX_RX;
  57              		.loc 1 46 3 is_stmt 1 view .LVU11
  58              		.loc 1 46 22 is_stmt 0 view .LVU12
  59 0016 0C22     		movs	r2, #12
  60 0018 4261     		str	r2, [r0, #20]
  47:Core/Src/usart.c ****   hlpuart1.Init.HwFlowCtl = UART_HWCONTROL_NONE;
  61              		.loc 1 47 3 is_stmt 1 view .LVU13
  62              		.loc 1 47 27 is_stmt 0 view .LVU14
  63 001a 8361     		str	r3, [r0, #24]
  48:Core/Src/usart.c ****   hlpuart1.Init.OneBitSampling = UART_ONE_BIT_SAMPLE_DISABLE;
  64              		.loc 1 48 3 is_stmt 1 view .LVU15
  65              		.loc 1 48 32 is_stmt 0 view .LVU16
  66 001c 0362     		str	r3, [r0, #32]
  49:Core/Src/usart.c ****   hlpuart1.Init.ClockPrescaler = UART_PRESCALER_DIV1;
ARM GAS  /tmp/ccoOn0vo.s 			page 3


  67              		.loc 1 49 3 is_stmt 1 view .LVU17
  68              		.loc 1 49 32 is_stmt 0 view .LVU18
  69 001e 4362     		str	r3, [r0, #36]
  50:Core/Src/usart.c ****   hlpuart1.AdvancedInit.AdvFeatureInit = UART_ADVFEATURE_NO_INIT;
  70              		.loc 1 50 3 is_stmt 1 view .LVU19
  71              		.loc 1 50 40 is_stmt 0 view .LVU20
  72 0020 8362     		str	r3, [r0, #40]
  51:Core/Src/usart.c ****   if (HAL_UART_Init(&hlpuart1) != HAL_OK)
  73              		.loc 1 51 3 is_stmt 1 view .LVU21
  74              		.loc 1 51 7 is_stmt 0 view .LVU22
  75 0022 FFF7FEFF 		bl	HAL_UART_Init
  76              	.LVL0:
  77              		.loc 1 51 6 view .LVU23
  78 0026 70B9     		cbnz	r0, .L7
  79              	.L2:
  52:Core/Src/usart.c ****   {
  53:Core/Src/usart.c ****     Error_Handler();
  54:Core/Src/usart.c ****   }
  55:Core/Src/usart.c ****   if (HAL_UARTEx_SetTxFifoThreshold(&hlpuart1, UART_TXFIFO_THRESHOLD_1_8) != HAL_OK)
  80              		.loc 1 55 3 is_stmt 1 view .LVU24
  81              		.loc 1 55 7 is_stmt 0 view .LVU25
  82 0028 0021     		movs	r1, #0
  83 002a 0D48     		ldr	r0, .L11
  84 002c FFF7FEFF 		bl	HAL_UARTEx_SetTxFifoThreshold
  85              	.LVL1:
  86              		.loc 1 55 6 view .LVU26
  87 0030 60B9     		cbnz	r0, .L8
  88              	.L3:
  56:Core/Src/usart.c ****   {
  57:Core/Src/usart.c ****     Error_Handler();
  58:Core/Src/usart.c ****   }
  59:Core/Src/usart.c ****   if (HAL_UARTEx_SetRxFifoThreshold(&hlpuart1, UART_RXFIFO_THRESHOLD_1_8) != HAL_OK)
  89              		.loc 1 59 3 is_stmt 1 view .LVU27
  90              		.loc 1 59 7 is_stmt 0 view .LVU28
  91 0032 0021     		movs	r1, #0
  92 0034 0A48     		ldr	r0, .L11
  93 0036 FFF7FEFF 		bl	HAL_UARTEx_SetRxFifoThreshold
  94              	.LVL2:
  95              		.loc 1 59 6 view .LVU29
  96 003a 50B9     		cbnz	r0, .L9
  97              	.L4:
  60:Core/Src/usart.c ****   {
  61:Core/Src/usart.c ****     Error_Handler();
  62:Core/Src/usart.c ****   }
  63:Core/Src/usart.c ****   if (HAL_UARTEx_DisableFifoMode(&hlpuart1) != HAL_OK)
  98              		.loc 1 63 3 is_stmt 1 view .LVU30
  99              		.loc 1 63 7 is_stmt 0 view .LVU31
 100 003c 0848     		ldr	r0, .L11
 101 003e FFF7FEFF 		bl	HAL_UARTEx_DisableFifoMode
 102              	.LVL3:
 103              		.loc 1 63 6 view .LVU32
 104 0042 48B9     		cbnz	r0, .L10
 105              	.L1:
  64:Core/Src/usart.c ****   {
  65:Core/Src/usart.c ****     Error_Handler();
  66:Core/Src/usart.c ****   }
  67:Core/Src/usart.c ****   /* USER CODE BEGIN LPUART1_Init 2 */
ARM GAS  /tmp/ccoOn0vo.s 			page 4


  68:Core/Src/usart.c **** 
  69:Core/Src/usart.c ****   /* USER CODE END LPUART1_Init 2 */
  70:Core/Src/usart.c **** 
  71:Core/Src/usart.c **** }
 106              		.loc 1 71 1 view .LVU33
 107 0044 08BD     		pop	{r3, pc}
 108              	.L7:
  53:Core/Src/usart.c ****   }
 109              		.loc 1 53 5 is_stmt 1 view .LVU34
 110 0046 FFF7FEFF 		bl	Error_Handler
 111              	.LVL4:
 112 004a EDE7     		b	.L2
 113              	.L8:
  57:Core/Src/usart.c ****   }
 114              		.loc 1 57 5 view .LVU35
 115 004c FFF7FEFF 		bl	Error_Handler
 116              	.LVL5:
 117 0050 EFE7     		b	.L3
 118              	.L9:
  61:Core/Src/usart.c ****   }
 119              		.loc 1 61 5 view .LVU36
 120 0052 FFF7FEFF 		bl	Error_Handler
 121              	.LVL6:
 122 0056 F1E7     		b	.L4
 123              	.L10:
  65:Core/Src/usart.c ****   }
 124              		.loc 1 65 5 view .LVU37
 125 0058 FFF7FEFF 		bl	Error_Handler
 126              	.LVL7:
 127              		.loc 1 71 1 is_stmt 0 view .LVU38
 128 005c F2E7     		b	.L1
 129              	.L12:
 130 005e 00BF     		.align	2
 131              	.L11:
 132 0060 00000000 		.word	hlpuart1
 133 0064 00800040 		.word	1073774592
 134              		.cfi_endproc
 135              	.LFE132:
 137              		.section	.text.HAL_UART_MspInit,"ax",%progbits
 138              		.align	1
 139              		.global	HAL_UART_MspInit
 140              		.syntax unified
 141              		.thumb
 142              		.thumb_func
 143              		.fpu fpv4-sp-d16
 145              	HAL_UART_MspInit:
 146              	.LVL8:
 147              	.LFB133:
  72:Core/Src/usart.c **** 
  73:Core/Src/usart.c **** void HAL_UART_MspInit(UART_HandleTypeDef* uartHandle)
  74:Core/Src/usart.c **** {
 148              		.loc 1 74 1 is_stmt 1 view -0
 149              		.cfi_startproc
 150              		@ args = 0, pretend = 0, frame = 96
 151              		@ frame_needed = 0, uses_anonymous_args = 0
 152              		.loc 1 74 1 is_stmt 0 view .LVU40
 153 0000 10B5     		push	{r4, lr}
ARM GAS  /tmp/ccoOn0vo.s 			page 5


 154              	.LCFI1:
 155              		.cfi_def_cfa_offset 8
 156              		.cfi_offset 4, -8
 157              		.cfi_offset 14, -4
 158 0002 98B0     		sub	sp, sp, #96
 159              	.LCFI2:
 160              		.cfi_def_cfa_offset 104
 161 0004 0446     		mov	r4, r0
  75:Core/Src/usart.c **** 
  76:Core/Src/usart.c ****   GPIO_InitTypeDef GPIO_InitStruct = {0};
 162              		.loc 1 76 3 is_stmt 1 view .LVU41
 163              		.loc 1 76 20 is_stmt 0 view .LVU42
 164 0006 0021     		movs	r1, #0
 165 0008 1391     		str	r1, [sp, #76]
 166 000a 1491     		str	r1, [sp, #80]
 167 000c 1591     		str	r1, [sp, #84]
 168 000e 1691     		str	r1, [sp, #88]
 169 0010 1791     		str	r1, [sp, #92]
  77:Core/Src/usart.c ****   RCC_PeriphCLKInitTypeDef PeriphClkInit = {0};
 170              		.loc 1 77 3 is_stmt 1 view .LVU43
 171              		.loc 1 77 28 is_stmt 0 view .LVU44
 172 0012 4422     		movs	r2, #68
 173 0014 02A8     		add	r0, sp, #8
 174              	.LVL9:
 175              		.loc 1 77 28 view .LVU45
 176 0016 FFF7FEFF 		bl	memset
 177              	.LVL10:
  78:Core/Src/usart.c ****   if(uartHandle->Instance==LPUART1)
 178              		.loc 1 78 3 is_stmt 1 view .LVU46
 179              		.loc 1 78 16 is_stmt 0 view .LVU47
 180 001a 2268     		ldr	r2, [r4]
 181              		.loc 1 78 5 view .LVU48
 182 001c 184B     		ldr	r3, .L19
 183 001e 9A42     		cmp	r2, r3
 184 0020 01D0     		beq	.L17
 185              	.L13:
  79:Core/Src/usart.c ****   {
  80:Core/Src/usart.c ****   /* USER CODE BEGIN LPUART1_MspInit 0 */
  81:Core/Src/usart.c **** 
  82:Core/Src/usart.c ****   /* USER CODE END LPUART1_MspInit 0 */
  83:Core/Src/usart.c **** 
  84:Core/Src/usart.c ****   /** Initializes the peripherals clocks
  85:Core/Src/usart.c ****   */
  86:Core/Src/usart.c ****     PeriphClkInit.PeriphClockSelection = RCC_PERIPHCLK_LPUART1;
  87:Core/Src/usart.c ****     PeriphClkInit.Lpuart1ClockSelection = RCC_LPUART1CLKSOURCE_PCLK1;
  88:Core/Src/usart.c ****     if (HAL_RCCEx_PeriphCLKConfig(&PeriphClkInit) != HAL_OK)
  89:Core/Src/usart.c ****     {
  90:Core/Src/usart.c ****       Error_Handler();
  91:Core/Src/usart.c ****     }
  92:Core/Src/usart.c **** 
  93:Core/Src/usart.c ****     /* LPUART1 clock enable */
  94:Core/Src/usart.c ****     __HAL_RCC_LPUART1_CLK_ENABLE();
  95:Core/Src/usart.c **** 
  96:Core/Src/usart.c ****     __HAL_RCC_GPIOA_CLK_ENABLE();
  97:Core/Src/usart.c ****     /**LPUART1 GPIO Configuration
  98:Core/Src/usart.c ****     PA2     ------> LPUART1_TX
  99:Core/Src/usart.c ****     PA3     ------> LPUART1_RX
ARM GAS  /tmp/ccoOn0vo.s 			page 6


 100:Core/Src/usart.c ****     */
 101:Core/Src/usart.c ****     GPIO_InitStruct.Pin = LPUART1_TX_Pin|LPUART1_RX_Pin;
 102:Core/Src/usart.c ****     GPIO_InitStruct.Mode = GPIO_MODE_AF_PP;
 103:Core/Src/usart.c ****     GPIO_InitStruct.Pull = GPIO_NOPULL;
 104:Core/Src/usart.c ****     GPIO_InitStruct.Speed = GPIO_SPEED_FREQ_LOW;
 105:Core/Src/usart.c ****     GPIO_InitStruct.Alternate = GPIO_AF12_LPUART1;
 106:Core/Src/usart.c ****     HAL_GPIO_Init(GPIOA, &GPIO_InitStruct);
 107:Core/Src/usart.c **** 
 108:Core/Src/usart.c ****   /* USER CODE BEGIN LPUART1_MspInit 1 */
 109:Core/Src/usart.c **** 
 110:Core/Src/usart.c ****   /* USER CODE END LPUART1_MspInit 1 */
 111:Core/Src/usart.c ****   }
 112:Core/Src/usart.c **** }
 186              		.loc 1 112 1 view .LVU49
 187 0022 18B0     		add	sp, sp, #96
 188              	.LCFI3:
 189              		.cfi_remember_state
 190              		.cfi_def_cfa_offset 8
 191              		@ sp needed
 192 0024 10BD     		pop	{r4, pc}
 193              	.LVL11:
 194              	.L17:
 195              	.LCFI4:
 196              		.cfi_restore_state
  86:Core/Src/usart.c ****     PeriphClkInit.Lpuart1ClockSelection = RCC_LPUART1CLKSOURCE_PCLK1;
 197              		.loc 1 86 5 is_stmt 1 view .LVU50
  86:Core/Src/usart.c ****     PeriphClkInit.Lpuart1ClockSelection = RCC_LPUART1CLKSOURCE_PCLK1;
 198              		.loc 1 86 40 is_stmt 0 view .LVU51
 199 0026 2023     		movs	r3, #32
 200 0028 0293     		str	r3, [sp, #8]
  87:Core/Src/usart.c ****     if (HAL_RCCEx_PeriphCLKConfig(&PeriphClkInit) != HAL_OK)
 201              		.loc 1 87 5 is_stmt 1 view .LVU52
  87:Core/Src/usart.c ****     if (HAL_RCCEx_PeriphCLKConfig(&PeriphClkInit) != HAL_OK)
 202              		.loc 1 87 41 is_stmt 0 view .LVU53
 203 002a 0023     		movs	r3, #0
 204 002c 0793     		str	r3, [sp, #28]
  88:Core/Src/usart.c ****     {
 205              		.loc 1 88 5 is_stmt 1 view .LVU54
  88:Core/Src/usart.c ****     {
 206              		.loc 1 88 9 is_stmt 0 view .LVU55
 207 002e 02A8     		add	r0, sp, #8
 208 0030 FFF7FEFF 		bl	HAL_RCCEx_PeriphCLKConfig
 209              	.LVL12:
  88:Core/Src/usart.c ****     {
 210              		.loc 1 88 8 view .LVU56
 211 0034 00BB     		cbnz	r0, .L18
 212              	.L15:
  94:Core/Src/usart.c **** 
 213              		.loc 1 94 5 is_stmt 1 view .LVU57
 214              	.LBB2:
  94:Core/Src/usart.c **** 
 215              		.loc 1 94 5 view .LVU58
  94:Core/Src/usart.c **** 
 216              		.loc 1 94 5 view .LVU59
 217 0036 134B     		ldr	r3, .L19+4
 218 0038 DA6D     		ldr	r2, [r3, #92]
 219 003a 42F00102 		orr	r2, r2, #1
ARM GAS  /tmp/ccoOn0vo.s 			page 7


 220 003e DA65     		str	r2, [r3, #92]
  94:Core/Src/usart.c **** 
 221              		.loc 1 94 5 view .LVU60
 222 0040 DA6D     		ldr	r2, [r3, #92]
 223 0042 02F00102 		and	r2, r2, #1
 224 0046 0092     		str	r2, [sp]
  94:Core/Src/usart.c **** 
 225              		.loc 1 94 5 view .LVU61
 226 0048 009A     		ldr	r2, [sp]
 227              	.LBE2:
  94:Core/Src/usart.c **** 
 228              		.loc 1 94 5 view .LVU62
  96:Core/Src/usart.c ****     /**LPUART1 GPIO Configuration
 229              		.loc 1 96 5 view .LVU63
 230              	.LBB3:
  96:Core/Src/usart.c ****     /**LPUART1 GPIO Configuration
 231              		.loc 1 96 5 view .LVU64
  96:Core/Src/usart.c ****     /**LPUART1 GPIO Configuration
 232              		.loc 1 96 5 view .LVU65
 233 004a DA6C     		ldr	r2, [r3, #76]
 234 004c 42F00102 		orr	r2, r2, #1
 235 0050 DA64     		str	r2, [r3, #76]
  96:Core/Src/usart.c ****     /**LPUART1 GPIO Configuration
 236              		.loc 1 96 5 view .LVU66
 237 0052 DB6C     		ldr	r3, [r3, #76]
 238 0054 03F00103 		and	r3, r3, #1
 239 0058 0193     		str	r3, [sp, #4]
  96:Core/Src/usart.c ****     /**LPUART1 GPIO Configuration
 240              		.loc 1 96 5 view .LVU67
 241 005a 019B     		ldr	r3, [sp, #4]
 242              	.LBE3:
  96:Core/Src/usart.c ****     /**LPUART1 GPIO Configuration
 243              		.loc 1 96 5 view .LVU68
 101:Core/Src/usart.c ****     GPIO_InitStruct.Mode = GPIO_MODE_AF_PP;
 244              		.loc 1 101 5 view .LVU69
 101:Core/Src/usart.c ****     GPIO_InitStruct.Mode = GPIO_MODE_AF_PP;
 245              		.loc 1 101 25 is_stmt 0 view .LVU70
 246 005c 0C23     		movs	r3, #12
 247 005e 1393     		str	r3, [sp, #76]
 102:Core/Src/usart.c ****     GPIO_InitStruct.Pull = GPIO_NOPULL;
 248              		.loc 1 102 5 is_stmt 1 view .LVU71
 102:Core/Src/usart.c ****     GPIO_InitStruct.Pull = GPIO_NOPULL;
 249              		.loc 1 102 26 is_stmt 0 view .LVU72
 250 0060 0222     		movs	r2, #2
 251 0062 1492     		str	r2, [sp, #80]
 103:Core/Src/usart.c ****     GPIO_InitStruct.Speed = GPIO_SPEED_FREQ_LOW;
 252              		.loc 1 103 5 is_stmt 1 view .LVU73
 103:Core/Src/usart.c ****     GPIO_InitStruct.Speed = GPIO_SPEED_FREQ_LOW;
 253              		.loc 1 103 26 is_stmt 0 view .LVU74
 254 0064 0022     		movs	r2, #0
 255 0066 1592     		str	r2, [sp, #84]
 104:Core/Src/usart.c ****     GPIO_InitStruct.Alternate = GPIO_AF12_LPUART1;
 256              		.loc 1 104 5 is_stmt 1 view .LVU75
 104:Core/Src/usart.c ****     GPIO_InitStruct.Alternate = GPIO_AF12_LPUART1;
 257              		.loc 1 104 27 is_stmt 0 view .LVU76
 258 0068 1692     		str	r2, [sp, #88]
 105:Core/Src/usart.c ****     HAL_GPIO_Init(GPIOA, &GPIO_InitStruct);
ARM GAS  /tmp/ccoOn0vo.s 			page 8


 259              		.loc 1 105 5 is_stmt 1 view .LVU77
 105:Core/Src/usart.c ****     HAL_GPIO_Init(GPIOA, &GPIO_InitStruct);
 260              		.loc 1 105 31 is_stmt 0 view .LVU78
 261 006a 1793     		str	r3, [sp, #92]
 106:Core/Src/usart.c **** 
 262              		.loc 1 106 5 is_stmt 1 view .LVU79
 263 006c 13A9     		add	r1, sp, #76
 264 006e 4FF09040 		mov	r0, #1207959552
 265 0072 FFF7FEFF 		bl	HAL_GPIO_Init
 266              	.LVL13:
 267              		.loc 1 112 1 is_stmt 0 view .LVU80
 268 0076 D4E7     		b	.L13
 269              	.L18:
  90:Core/Src/usart.c ****     }
 270              		.loc 1 90 7 is_stmt 1 view .LVU81
 271 0078 FFF7FEFF 		bl	Error_Handler
 272              	.LVL14:
 273 007c DBE7     		b	.L15
 274              	.L20:
 275 007e 00BF     		.align	2
 276              	.L19:
 277 0080 00800040 		.word	1073774592
 278 0084 00100240 		.word	1073876992
 279              		.cfi_endproc
 280              	.LFE133:
 282              		.section	.text.HAL_UART_MspDeInit,"ax",%progbits
 283              		.align	1
 284              		.global	HAL_UART_MspDeInit
 285              		.syntax unified
 286              		.thumb
 287              		.thumb_func
 288              		.fpu fpv4-sp-d16
 290              	HAL_UART_MspDeInit:
 291              	.LVL15:
 292              	.LFB134:
 113:Core/Src/usart.c **** 
 114:Core/Src/usart.c **** void HAL_UART_MspDeInit(UART_HandleTypeDef* uartHandle)
 115:Core/Src/usart.c **** {
 293              		.loc 1 115 1 view -0
 294              		.cfi_startproc
 295              		@ args = 0, pretend = 0, frame = 0
 296              		@ frame_needed = 0, uses_anonymous_args = 0
 297              		.loc 1 115 1 is_stmt 0 view .LVU83
 298 0000 08B5     		push	{r3, lr}
 299              	.LCFI5:
 300              		.cfi_def_cfa_offset 8
 301              		.cfi_offset 3, -8
 302              		.cfi_offset 14, -4
 116:Core/Src/usart.c **** 
 117:Core/Src/usart.c ****   if(uartHandle->Instance==LPUART1)
 303              		.loc 1 117 3 is_stmt 1 view .LVU84
 304              		.loc 1 117 16 is_stmt 0 view .LVU85
 305 0002 0268     		ldr	r2, [r0]
 306              		.loc 1 117 5 view .LVU86
 307 0004 074B     		ldr	r3, .L25
 308 0006 9A42     		cmp	r2, r3
 309 0008 00D0     		beq	.L24
ARM GAS  /tmp/ccoOn0vo.s 			page 9


 310              	.LVL16:
 311              	.L21:
 118:Core/Src/usart.c ****   {
 119:Core/Src/usart.c ****   /* USER CODE BEGIN LPUART1_MspDeInit 0 */
 120:Core/Src/usart.c **** 
 121:Core/Src/usart.c ****   /* USER CODE END LPUART1_MspDeInit 0 */
 122:Core/Src/usart.c ****     /* Peripheral clock disable */
 123:Core/Src/usart.c ****     __HAL_RCC_LPUART1_CLK_DISABLE();
 124:Core/Src/usart.c **** 
 125:Core/Src/usart.c ****     /**LPUART1 GPIO Configuration
 126:Core/Src/usart.c ****     PA2     ------> LPUART1_TX
 127:Core/Src/usart.c ****     PA3     ------> LPUART1_RX
 128:Core/Src/usart.c ****     */
 129:Core/Src/usart.c ****     HAL_GPIO_DeInit(GPIOA, LPUART1_TX_Pin|LPUART1_RX_Pin);
 130:Core/Src/usart.c **** 
 131:Core/Src/usart.c ****   /* USER CODE BEGIN LPUART1_MspDeInit 1 */
 132:Core/Src/usart.c **** 
 133:Core/Src/usart.c ****   /* USER CODE END LPUART1_MspDeInit 1 */
 134:Core/Src/usart.c ****   }
 135:Core/Src/usart.c **** }
 312              		.loc 1 135 1 view .LVU87
 313 000a 08BD     		pop	{r3, pc}
 314              	.LVL17:
 315              	.L24:
 123:Core/Src/usart.c **** 
 316              		.loc 1 123 5 is_stmt 1 view .LVU88
 317 000c 064A     		ldr	r2, .L25+4
 318 000e D36D     		ldr	r3, [r2, #92]
 319 0010 23F00103 		bic	r3, r3, #1
 320 0014 D365     		str	r3, [r2, #92]
 129:Core/Src/usart.c **** 
 321              		.loc 1 129 5 view .LVU89
 322 0016 0C21     		movs	r1, #12
 323 0018 4FF09040 		mov	r0, #1207959552
 324              	.LVL18:
 129:Core/Src/usart.c **** 
 325              		.loc 1 129 5 is_stmt 0 view .LVU90
 326 001c FFF7FEFF 		bl	HAL_GPIO_DeInit
 327              	.LVL19:
 328              		.loc 1 135 1 view .LVU91
 329 0020 F3E7     		b	.L21
 330              	.L26:
 331 0022 00BF     		.align	2
 332              	.L25:
 333 0024 00800040 		.word	1073774592
 334 0028 00100240 		.word	1073876992
 335              		.cfi_endproc
 336              	.LFE134:
 338              		.comm	hlpuart1,144,4
 339              		.text
 340              	.Letext0:
 341              		.file 2 "/usr/lib/gcc/arm-none-eabi/9.2.1/include/stdint.h"
 342              		.file 3 "Drivers/CMSIS/Include/core_cm4.h"
 343              		.file 4 "Drivers/CMSIS/Device/ST/STM32G4xx/Include/system_stm32g4xx.h"
 344              		.file 5 "Drivers/CMSIS/Device/ST/STM32G4xx/Include/stm32g431xx.h"
 345              		.file 6 "Drivers/STM32G4xx_HAL_Driver/Inc/stm32g4xx_hal_def.h"
 346              		.file 7 "Drivers/STM32G4xx_HAL_Driver/Inc/stm32g4xx_hal_rcc_ex.h"
ARM GAS  /tmp/ccoOn0vo.s 			page 10


 347              		.file 8 "Drivers/STM32G4xx_HAL_Driver/Inc/stm32g4xx_hal_gpio.h"
 348              		.file 9 "Drivers/STM32G4xx_HAL_Driver/Inc/stm32g4xx_hal_dma.h"
 349              		.file 10 "Drivers/STM32G4xx_HAL_Driver/Inc/stm32g4xx_hal_flash.h"
 350              		.file 11 "Drivers/STM32G4xx_HAL_Driver/Inc/stm32g4xx_hal_uart.h"
 351              		.file 12 "Drivers/STM32G4xx_HAL_Driver/Inc/stm32g4xx_hal.h"
 352              		.file 13 "Core/Inc/usart.h"
 353              		.file 14 "Core/Inc/main.h"
 354              		.file 15 "Drivers/STM32G4xx_HAL_Driver/Inc/stm32g4xx_hal_uart_ex.h"
 355              		.file 16 "<built-in>"
ARM GAS  /tmp/ccoOn0vo.s 			page 11

